; Function Attrs: nounwind uwtable
define noundef ptr @Nwk_ManDfsReverse(ptr noundef %0) local_unnamed_addr #0 {
  tail call void @Nwk_ManIncrementTravId(ptr noundef %0) #9
  %2 = tail call noalias dereferenceable_or_null(16) ptr @malloc(i64 noundef 16) #10
  %3 = getelementptr inbounds nuw i8, ptr %2, i64 4
  store i32 0, ptr %3, align 4
  store i32 100, ptr %2, align 8
  %4 = tail call noalias dereferenceable_or_null(800) ptr @malloc(i64 noundef 800) #10
  %5 = getelementptr inbounds nuw i8, ptr %2, i64 8
  store ptr %4, ptr %5, align 8
  %6 = getelementptr inbounds nuw i8, ptr %0, i64 16
  %7 = load ptr, ptr %6, align 8
  %8 = getelementptr i8, ptr %7, i64 4
  %.val2537 = load i32, ptr %8, align 4
  %9 = icmp sgt i32 %.val2537, 0
  br i1 %9, label %.lr.ph, label %.critedge.preheader

.critedge.preheader:                              ; preds = %Nwk_ObjIsPi.exit.thread, %1
  %10 = getelementptr inbounds nuw i8, ptr %0, i64 32
  %11 = load ptr, ptr %10, align 8
  %12 = getelementptr i8, ptr %11, i64 4
  %.val39 = load i32, ptr %12, align 4
  %13 = icmp sgt i32 %.val39, 0
  br i1 %13, label %.lr.ph41, label %.critedge2

.lr.ph:                                           ; preds = %1, %Nwk_ObjIsPi.exit.thread
  %indvars.iv = phi i64 [ %indvars.iv.next, %Nwk_ObjIsPi.exit.thread ], [ 0, %1 ]
  %14 = phi ptr [ %27, %Nwk_ObjIsPi.exit.thread ], [ %7, %1 ]
  %15 = getelementptr i8, ptr %14, i64 8
  %.val27 = load ptr, ptr %15, align 8
  %16 = getelementptr inbounds nuw ptr, ptr %.val27, i64 %indvars.iv
  %17 = load ptr, ptr %16, align 8
  %18 = getelementptr i8, ptr %17, i64 32
  %.val.i = load i32, ptr %18, align 8
  %19 = and i32 %.val.i, 7
  %.not.i = icmp eq i32 %19, 1
  br i1 %.not.i, label %20, label %Nwk_ObjIsPi.exit.thread

20:                                               ; preds = %.lr.ph
  %21 = load ptr, ptr %17, align 8
  %22 = getelementptr inbounds nuw i8, ptr %21, i64 72
  %23 = load ptr, ptr %22, align 8
  %24 = icmp eq ptr %23, null
  br i1 %24, label %Nwk_ObjIsPi.exit.thread33, label %Nwk_ObjIsPi.exit

Nwk_ObjIsPi.exit:                                 ; preds = %20
  %25 = lshr i32 %.val.i, 7
  %26 = tail call i32 @Tim_ManBoxForCi(ptr noundef nonnull %23, i32 noundef %25) #9
  %.not36 = icmp eq i32 %26, -1
  br i1 %.not36, label %Nwk_ObjIsPi.exit.thread33, label %Nwk_ObjIsPi.exit.thread

Nwk_ObjIsPi.exit.thread33:                        ; preds = %20, %Nwk_ObjIsPi.exit
  tail call void @Nwk_ManDfsReverse_rec(ptr noundef nonnull %17, ptr noundef nonnull %2)
  br label %Nwk_ObjIsPi.exit.thread

Nwk_ObjIsPi.exit.thread:                          ; preds = %.lr.ph, %Nwk_ObjIsPi.exit.thread33, %Nwk_ObjIsPi.exit
  %indvars.iv.next = add nuw nsw i64 %indvars.iv, 1
  %27 = load ptr, ptr %6, align 8
  %28 = getelementptr i8, ptr %27, i64 4
  %.val25 = load i32, ptr %28, align 4
  %29 = sext i32 %.val25 to i64
  %30 = icmp slt i64 %indvars.iv.next, %29
  br i1 %30, label %.lr.ph, label %.critedge.preheader, !llvm.loop !26

.lr.ph41:                                         ; preds = %.critedge.preheader, %.critedge
  %31 = phi ptr [ %74, %.critedge ], [ %11, %.critedge.preheader ]
  %indvars.iv43 = phi i64 [ %indvars.iv.next44, %.critedge ], [ 0, %.critedge.preheader ]
  %32 = getelementptr i8, ptr %31, i64 8
  %.val26 = load ptr, ptr %32, align 8
  %33 = getelementptr inbounds nuw ptr, ptr %.val26, i64 %indvars.iv43
  %34 = load ptr, ptr %33, align 8
  %35 = icmp eq ptr %34, null
  br i1 %35, label %.critedge, label %36

36:                                               ; preds = %.lr.ph41
  %37 = getelementptr i8, ptr %34, i64 32
  %.val28 = load i32, ptr %37, align 8
  %38 = and i32 %.val28, 7
  %.not = icmp eq i32 %38, 3
  br i1 %.not, label %39, label %.critedge

39:                                               ; preds = %36
  %40 = getelementptr i8, ptr %34, i64 60
  %.val31 = load i32, ptr %40, align 4
  %41 = icmp eq i32 %.val31, 0
  br i1 %41, label %42, label %.critedge

42:                                               ; preds = %39
  %.val29 = load ptr, ptr %34, align 8
  %43 = getelementptr i8, ptr %34, i64 40
  %.val30 = load i32, ptr %43, align 8
  %44 = getelementptr i8, ptr %.val29, i64 104
  %.val29.val = load i32, ptr %44, align 8
  %.not35 = icmp eq i32 %.val30, %.val29.val
  br i1 %.not35, label %.critedge, label %45

45:                                               ; preds = %42
  %46 = load i32, ptr %3, align 4
  %47 = load i32, ptr %2, align 8
  %48 = icmp eq i32 %46, %47
  br i1 %48, label %49, label %.Vec_PtrGrow.exit11_crit_edge.i

.Vec_PtrGrow.exit11_crit_edge.i:                  ; preds = %45
  %.pre.i = load ptr, ptr %5, align 8
  br label %Vec_PtrPush.exit

49:                                               ; preds = %45
  %50 = icmp slt i32 %46, 16
  br i1 %50, label %51, label %58

51:                                               ; preds = %49
  %52 = load ptr, ptr %5, align 8
  %.not9.i.i = icmp eq ptr %52, null
  br i1 %.not9.i.i, label %55, label %53

53:                                               ; preds = %51
  %54 = tail call dereferenceable_or_null(128) ptr @realloc(ptr noundef nonnull %52, i64 noundef 128) #11
  br label %Vec_PtrGrow.exit.i

55:                                               ; preds = %51
  %56 = tail call noalias dereferenceable_or_null(128) ptr @malloc(i64 noundef 128) #10
  br label %Vec_PtrGrow.exit.i

Vec_PtrGrow.exit.i:                               ; preds = %55, %53
  %57 = phi ptr [ %54, %53 ], [ %56, %55 ]
  store ptr %57, ptr %5, align 8
  store i32 16, ptr %2, align 8
  br label %Vec_PtrPush.exit

58:                                               ; preds = %49
  %59 = shl nuw nsw i32 %46, 1
  %60 = load ptr, ptr %5, align 8
  %.not9.i10.i = icmp eq ptr %60, null
  %61 = zext nneg i32 %59 to i64
  %62 = shl nuw nsw i64 %61, 3
  br i1 %.not9.i10.i, label %65, label %63

63:                                               ; preds = %58
  %64 = tail call ptr @realloc(ptr noundef nonnull %60, i64 noundef %62) #11
  br label %67

65:                                               ; preds = %58
  %66 = tail call noalias ptr @malloc(i64 noundef %62) #10
  br label %67

67:                                               ; preds = %65, %63
  %68 = phi ptr [ %64, %63 ], [ %66, %65 ]
  store ptr %68, ptr %5, align 8
  store i32 %59, ptr %2, align 8
  br label %Vec_PtrPush.exit

Vec_PtrPush.exit:                                 ; preds = %.Vec_PtrGrow.exit11_crit_edge.i, %Vec_PtrGrow.exit.i, %67
  %69 = phi ptr [ %.pre.i, %.Vec_PtrGrow.exit11_crit_edge.i ], [ %68, %67 ], [ %57, %Vec_PtrGrow.exit.i ]
  %70 = load i32, ptr %3, align 4
  %71 = add nsw i32 %70, 1
  store i32 %71, ptr %3, align 4
  %72 = sext i32 %70 to i64
  %73 = getelementptr inbounds ptr, ptr %69, i64 %72
  store ptr %34, ptr %73, align 8
  %.pre = load ptr, ptr %10, align 8
  br label %.critedge

.critedge:                                        ; preds = %36, %.lr.ph41, %Vec_PtrPush.exit, %42, %39
  %74 = phi ptr [ %31, %36 ], [ %31, %.lr.ph41 ], [ %.pre, %Vec_PtrPush.exit ], [ %31, %42 ], [ %31, %39 ]
  %indvars.iv.next44 = add nuw nsw i64 %indvars.iv43, 1
  %75 = getelementptr i8, ptr %74, i64 4
  %.val = load i32, ptr %75, align 4
  %76 = sext i32 %.val to i64
  %77 = icmp slt i64 %indvars.iv.next44, %76
  br i1 %77, label %.lr.ph41, label %.critedge2, !llvm.loop !27

.critedge2:                                       ; preds = %.critedge, %.critedge.preheader
  ret ptr %2
}